; Function Attrs: norecurse nounwind uwtable
define internal void @_ZN5faiss12_GLOBAL__N_133pairwise_extra_distances_templateINS_14VectorDistanceILNS_10MetricTypeE23EEEEEvT_lPKflS7_Pflll.omp_outlined(ptr noalias nocapture noundef readonly %0, ptr noalias nocapture readnone %1, ptr nocapture noundef nonnull readonly align 8 dereferenceable(8) %2, ptr nocapture noundef nonnull readonly align 8 dereferenceable(8) %3, ptr nocapture noundef nonnull readonly align 8 dereferenceable(8) %4, ptr nocapture noundef nonnull readonly align 8 dereferenceable(8) %5, ptr nocapture noundef nonnull readonly align 8 dereferenceable(8) %6, ptr nocapture noundef nonnull readonly align 8 dereferenceable(8) %7, ptr nocapture noundef nonnull readonly align 8 dereferenceable(8) %8, ptr nocapture noundef nonnull readonly align 8 dereferenceable(16) %9, ptr nocapture noundef nonnull readonly align 8 dereferenceable(8) %10) #4 {
  %12 = alloca i64, align 8
  %13 = alloca i64, align 8
  %14 = alloca i64, align 8
  %15 = alloca i32, align 4
  %16 = load i64, ptr %2, align 8
  %17 = icmp sgt i64 %16, 0
  br i1 %17, label %18, label %67

18:                                               ; preds = %11
  %19 = add nsw i64 %16, -1
  store i64 0, ptr %12, align 8
  store i64 %19, ptr %13, align 8
  store i64 1, ptr %14, align 8
  store i32 0, ptr %15, align 4
  %20 = load i32, ptr %0, align 4
  call void @__kmpc_for_static_init_8(ptr nonnull @1, i32 %20, i32 34, ptr nonnull %15, ptr nonnull %12, ptr nonnull %13, ptr nonnull %14, i64 1, i64 1)
  %21 = load i64, ptr %13, align 8
  %22 = call i64 @llvm.smin.i64(i64 %21, i64 %19)
  store i64 %22, ptr %13, align 8
  %23 = load i64, ptr %12, align 8
  %.not32 = icmp sle i64 %23, %22
  %24 = load i64, ptr %8, align 8
  %25 = icmp sgt i64 %24, 0
  %or.cond = select i1 %.not32, i1 %25, i1 false
  br i1 %or.cond, label %.lr.ph35.split, label %._crit_edge36

.lr.ph35.split:                                   ; preds = %18, %._crit_edge
  %26 = phi i64 [ %64, %._crit_edge ], [ %22, %18 ]
  %27 = phi i64 [ %65, %._crit_edge ], [ %24, %18 ]
  %.02733 = phi i64 [ %66, %._crit_edge ], [ %23, %18 ]
  %28 = load ptr, ptr %3, align 8
  %29 = load i64, ptr %4, align 8
  %30 = mul nsw i64 %29, %.02733
  %31 = getelementptr inbounds float, ptr %28, i64 %30
  %32 = load ptr, ptr %6, align 8
  %33 = load i64, ptr %7, align 8
  %34 = mul nsw i64 %33, %.02733
  %35 = getelementptr inbounds float, ptr %32, i64 %34
  %36 = icmp sgt i64 %27, 0
  br i1 %36, label %.lr.ph.preheader, label %._crit_edge

.lr.ph.preheader:                                 ; preds = %.lr.ph35.split
  %37 = load ptr, ptr %5, align 8
  br label %.lr.ph

.lr.ph:                                           ; preds = %.lr.ph.preheader, %_ZNK5faiss14VectorDistanceILNS_10MetricTypeE23EEclEPKfS4_.exit
  %.031 = phi i64 [ %61, %_ZNK5faiss14VectorDistanceILNS_10MetricTypeE23EEclEPKfS4_.exit ], [ 0, %.lr.ph.preheader ]
  %.02830 = phi ptr [ %60, %_ZNK5faiss14VectorDistanceILNS_10MetricTypeE23EEclEPKfS4_.exit ], [ %37, %.lr.ph.preheader ]
  %38 = load i64, ptr %9, align 8
  %.not.i = icmp eq i64 %38, 0
  br i1 %.not.i, label %_ZNK5faiss14VectorDistanceILNS_10MetricTypeE23EEclEPKfS4_.exit, label %.lr.ph.i

.lr.ph.i:                                         ; preds = %.lr.ph, %.lr.ph.i
  %.018.i = phi i64 [ %53, %.lr.ph.i ], [ 0, %.lr.ph ]
  %39 = phi <2 x float> [ %52, %.lr.ph.i ], [ zeroinitializer, %.lr.ph ]
  %40 = getelementptr inbounds float, ptr %31, i64 %.018.i
  %41 = load float, ptr %40, align 4
  %42 = fpext float %41 to double
  %43 = getelementptr inbounds float, ptr %.02830, i64 %.018.i
  %44 = load float, ptr %43, align 4
  %45 = fpext float %44 to double
  %46 = call double @llvm.minnum.f64(double %42, double %45)
  %47 = fpext <2 x float> %39 to <2 x double>
  %48 = call double @llvm.maxnum.f64(double %42, double %45)
  %49 = insertelement <2 x double> poison, double %48, i64 0
  %50 = insertelement <2 x double> %49, double %46, i64 1
  %51 = fadd <2 x double> %50, %47
  %52 = fptrunc <2 x double> %51 to <2 x float>
  %53 = add nuw i64 %.018.i, 1
  %exitcond.not.i = icmp eq i64 %53, %38
  br i1 %exitcond.not.i, label %._crit_edge.loopexit.i, label %.lr.ph.i, !llvm.loop !33

._crit_edge.loopexit.i:                           ; preds = %.lr.ph.i
  %54 = extractelement <2 x float> %52, i64 0
  %55 = extractelement <2 x float> %52, i64 1
  %56 = fdiv float %55, %54
  br label %_ZNK5faiss14VectorDistanceILNS_10MetricTypeE23EEclEPKfS4_.exit

_ZNK5faiss14VectorDistanceILNS_10MetricTypeE23EEclEPKfS4_.exit: ; preds = %.lr.ph, %._crit_edge.loopexit.i
  %57 = phi float [ 0x7FF8000000000000, %.lr.ph ], [ %56, %._crit_edge.loopexit.i ]
  %58 = getelementptr inbounds float, ptr %35, i64 %.031
  store float %57, ptr %58, align 4
  %59 = load i64, ptr %10, align 8
  %60 = getelementptr inbounds float, ptr %.02830, i64 %59
  %61 = add nuw nsw i64 %.031, 1
  %62 = load i64, ptr %8, align 8
  %63 = icmp slt i64 %61, %62
  br i1 %63, label %.lr.ph, label %._crit_edge.loopexit, !llvm.loop !73

._crit_edge.loopexit:                             ; preds = %_ZNK5faiss14VectorDistanceILNS_10MetricTypeE23EEclEPKfS4_.exit
  %.pre = load i64, ptr %13, align 8
  br label %._crit_edge

._crit_edge:                                      ; preds = %._crit_edge.loopexit, %.lr.ph35.split
  %64 = phi i64 [ %.pre, %._crit_edge.loopexit ], [ %26, %.lr.ph35.split ]
  %65 = phi i64 [ %62, %._crit_edge.loopexit ], [ %27, %.lr.ph35.split ]
  %66 = add nsw i64 %.02733, 1
  %.not.not = icmp slt i64 %.02733, %64
  br i1 %.not.not, label %.lr.ph35.split, label %._crit_edge36, !llvm.loop !74

._crit_edge36:                                    ; preds = %._crit_edge, %18
  call void @__kmpc_for_static_fini(ptr nonnull @1, i32 %20)
  br label %67

67:                                               ; preds = %._crit_edge36, %11
  ret void
}